	.file	"SimpleSection.c"
	.text
	.globl	global_int_val
	.data
	.align 4
	.type	global_int_val, @object
	.size	global_int_val, 4
global_int_val:
	.long	84
	.comm	global_uninit_var,4,4
	.section	.rodata
.LC0:
	.string	"%d\n"
	.text
	.globl	func1
	.type	func1, @function
func1:
.LFB0:
	.cfi_startproc
	endbr64
	pushq	%rbp
	.cfi_def_cfa_offset 16
	.cfi_offset 6, -16
	movq	%rsp, %rbp
	.cfi_def_cfa_register 6
	subq	$16, %rsp
	movl	%edi, -4(%rbp)
	movl	-4(%rbp), %eax
	movl	%eax, %esi
	leaq	.LC0(%rip), %rdi
	movl	$0, %eax
	call	printf@PLT
	nop
	leave
	.cfi_def_cfa 7, 8
	ret
	.cfi_endproc
.LFE0:
	.size	func1, .-func1
	.globl	main
	.type	main, @function
main:
.LFB1:
	.cfi_startproc
	endbr64
	pushq	%rbp
	.cfi_def_cfa_offset 16
	.cfi_offset 6, -16
	movq	%rsp, %rbp
	.cfi_def_cfa_register 6
	subq	$16, %rsp
	movl	$1, -8(%rbp)
	movl	static_var.1920(%rip), %edx
	movl	static_var2.1921(%rip), %eax
	addl	%eax, %edx
	movl	-8(%rbp), %eax
	addl	%eax, %edx
	movl	-4(%rbp), %eax
	addl	%edx, %eax
	movl	%eax, %edi
	call	func1
	movl	-8(%rbp), %eax
	leave
	.cfi_def_cfa 7, 8
	ret
	.cfi_endproc
.LFE1:
	.size	main, .-main
	.data
	.align 4
	.type	static_var.1920, @object
	.size	static_var.1920, 4
static_var.1920:
	.long	85
	.local	static_var2.1921
	.comm	static_var2.1921,4,4
	.ident	"GCC: (Ubuntu 9.3.0-17ubuntu1~20.04) 9.3.0"
	.section	.note.GNU-stack,"",@progbits
	.section	.note.gnu.property,"a"
	.align 8
	.long	 1f - 0f
	.long	 4f - 1f
	.long	 5
0:
	.string	 "GNU"
1:
	.align 8
	.long	 0xc0000002
	.long	 3f - 2f
2:
	.long	 0x3
3:
	.align 8
4:
